; Function Attrs: mustprogress uwtable
define hidden void @_ZN2cv7details10Chessboard16detectAndComputeERKNS_11_InputArrayES4_RSt6vectorINS_8KeyPointESaIS6_EERKNS_12_OutputArrayEb(ptr noundef nonnull align 8 dereferenceable(36) %0, ptr noundef nonnull align 8 dereferenceable(24) %1, ptr noundef nonnull align 8 dereferenceable(24) %2, ptr noundef nonnull align 8 captures(none) dereferenceable(24) %3, ptr noundef nonnull align 8 dereferenceable(24) %4, i1 zeroext %5) unnamed_addr #5 align 2 personality ptr @__gxx_personality_v0 {
  %7 = alloca %"class.std::vector.4", align 8
  %8 = alloca %"class.cv::Mat", align 8
  %9 = alloca %"class.cv::Mat", align 8
  tail call void @_ZNK2cv12_OutputArray5clearEv(ptr noundef nonnull align 8 dereferenceable(24) %4)
  call void @llvm.lifetime.start.p0(i64 24, ptr nonnull %7) #37
  call void @llvm.memset.p0.i64(ptr noundef nonnull align 8 dereferenceable(24) %7, i8 0, i64 24, i1 false)
  call void @llvm.lifetime.start.p0(i64 96, ptr nonnull %8) #37
  %10 = invoke noundef i32 @_ZNK2cv11_InputArray4kindEv(ptr noundef nonnull align 8 dereferenceable(24) %1)
          to label %.noexc unwind label %29

.noexc:                                           ; preds = %6
  %11 = icmp eq i32 %10, 65536
  br i1 %11, label %12, label %15

12:                                               ; preds = %.noexc
  %13 = getelementptr inbounds nuw i8, ptr %1, i64 8
  %14 = load ptr, ptr %13, align 8, !tbaa !43, !noalias !794
  invoke void @_ZN2cv3MatC1ERKS0_(ptr noundef nonnull align 8 dereferenceable(96) %8, ptr noundef nonnull align 8 dereferenceable(96) %14)
          to label %_ZNK2cv11_InputArray6getMatEi.exit unwind label %29

15:                                               ; preds = %.noexc
  invoke void @_ZNK2cv11_InputArray7getMat_Ei(ptr dead_on_unwind nonnull writable sret(%"class.cv::Mat") align 8 %8, ptr noundef nonnull align 8 dereferenceable(24) %1, i32 noundef -1)
          to label %_ZNK2cv11_InputArray6getMatEi.exit unwind label %29

_ZNK2cv11_InputArray6getMatEi.exit:               ; preds = %12, %15
  call void @llvm.lifetime.start.p0(i64 96, ptr nonnull %9) #37
  %16 = invoke noundef i32 @_ZNK2cv11_InputArray4kindEv(ptr noundef nonnull align 8 dereferenceable(24) %2)
          to label %.noexc12 unwind label %31

.noexc12:                                         ; preds = %_ZNK2cv11_InputArray6getMatEi.exit
  %17 = icmp eq i32 %16, 65536
  br i1 %17, label %18, label %21

18:                                               ; preds = %.noexc12
  %19 = getelementptr inbounds nuw i8, ptr %2, i64 8
  %20 = load ptr, ptr %19, align 8, !tbaa !43, !noalias !797
  invoke void @_ZN2cv3MatC1ERKS0_(ptr noundef nonnull align 8 dereferenceable(96) %9, ptr noundef nonnull align 8 dereferenceable(96) %20)
          to label %_ZNK2cv11_InputArray6getMatEi.exit15 unwind label %31

21:                                               ; preds = %.noexc12
  invoke void @_ZNK2cv11_InputArray7getMat_Ei(ptr dead_on_unwind nonnull writable sret(%"class.cv::Mat") align 8 %9, ptr noundef nonnull align 8 dereferenceable(24) %2, i32 noundef -1)
          to label %_ZNK2cv11_InputArray6getMatEi.exit15 unwind label %31

_ZNK2cv11_InputArray6getMatEi.exit15:             ; preds = %18, %21
  invoke void @_ZNK2cv7details10Chessboard10detectImplERKNS_3MatERSt6vectorINS_8KeyPointESaIS6_EERS5_IS2_SaIS2_EES4_(ptr noundef nonnull align 8 dereferenceable(36) %0, ptr noundef nonnull align 8 dereferenceable(96) %8, ptr noundef nonnull align 8 dereferenceable(24) %3, ptr noundef nonnull align 8 dereferenceable(24) %7, ptr noundef nonnull align 8 dereferenceable(96) %9)
          to label %22 unwind label %33

22:                                               ; preds = %_ZNK2cv11_InputArray6getMatEi.exit15
  call void @_ZN2cv3MatD1Ev(ptr noundef nonnull align 8 dereferenceable(96) %9) #37
  call void @llvm.lifetime.end.p0(i64 96, ptr nonnull %9) #37
  call void @_ZN2cv3MatD1Ev(ptr noundef nonnull align 8 dereferenceable(96) %8) #37
  call void @llvm.lifetime.end.p0(i64 96, ptr nonnull %8) #37
  %23 = load ptr, ptr %7, align 8, !tbaa !107
  %24 = getelementptr inbounds nuw i8, ptr %7, i64 8
  %25 = load ptr, ptr %24, align 8, !tbaa !105
  %.not4.i.i.i.i = icmp eq ptr %23, %25
  br i1 %.not4.i.i.i.i, label %_ZSt8_DestroyIPN2cv3MatES1_EvT_S3_RSaIT0_E.exit.i, label %.lr.ph.i.i.i.i

.lr.ph.i.i.i.i:                                   ; preds = %22, %.lr.ph.i.i.i.i
  %.05.i.i.i.i = phi ptr [ %26, %.lr.ph.i.i.i.i ], [ %23, %22 ]
  call void @_ZN2cv3MatD1Ev(ptr noundef nonnull align 8 dereferenceable(96) %.05.i.i.i.i) #37
  %26 = getelementptr inbounds nuw i8, ptr %.05.i.i.i.i, i64 96
  %.not.i.i.i.i = icmp eq ptr %26, %25
  br i1 %.not.i.i.i.i, label %_ZSt8_DestroyIPN2cv3MatES1_EvT_S3_RSaIT0_E.exitthread-pre-split.i, label %.lr.ph.i.i.i.i, !llvm.loop !147

_ZSt8_DestroyIPN2cv3MatES1_EvT_S3_RSaIT0_E.exitthread-pre-split.i: ; preds = %.lr.ph.i.i.i.i
  %.pr.i = load ptr, ptr %7, align 8, !tbaa !107
  br label %_ZSt8_DestroyIPN2cv3MatES1_EvT_S3_RSaIT0_E.exit.i

_ZSt8_DestroyIPN2cv3MatES1_EvT_S3_RSaIT0_E.exit.i: ; preds = %_ZSt8_DestroyIPN2cv3MatES1_EvT_S3_RSaIT0_E.exitthread-pre-split.i, %22
  %27 = phi ptr [ %.pr.i, %_ZSt8_DestroyIPN2cv3MatES1_EvT_S3_RSaIT0_E.exitthread-pre-split.i ], [ %23, %22 ]
  %.not.i.i.i = icmp eq ptr %27, null
  br i1 %.not.i.i.i, label %_ZNSt6vectorIN2cv3MatESaIS1_EED2Ev.exit, label %28

28:                                               ; preds = %_ZSt8_DestroyIPN2cv3MatES1_EvT_S3_RSaIT0_E.exit.i
  call void @_ZdlPv(ptr noundef nonnull %27) #38
  br label %_ZNSt6vectorIN2cv3MatESaIS1_EED2Ev.exit

_ZNSt6vectorIN2cv3MatESaIS1_EED2Ev.exit:          ; preds = %_ZSt8_DestroyIPN2cv3MatES1_EvT_S3_RSaIT0_E.exit.i, %28
  call void @llvm.lifetime.end.p0(i64 24, ptr nonnull %7) #37
  ret void

29:                                               ; preds = %15, %12, %6
  %30 = landingpad { ptr, i32 }
          cleanup
  br label %36

31:                                               ; preds = %21, %18, %_ZNK2cv11_InputArray6getMatEi.exit
  %32 = landingpad { ptr, i32 }
          cleanup
  br label %35

33:                                               ; preds = %_ZNK2cv11_InputArray6getMatEi.exit15
  %34 = landingpad { ptr, i32 }
          cleanup
  call void @_ZN2cv3MatD1Ev(ptr noundef nonnull align 8 dereferenceable(96) %9) #37
  br label %35

35:                                               ; preds = %33, %31
  %.pn = phi { ptr, i32 } [ %34, %33 ], [ %32, %31 ]
  call void @llvm.lifetime.end.p0(i64 96, ptr nonnull %9) #37
  call void @_ZN2cv3MatD1Ev(ptr noundef nonnull align 8 dereferenceable(96) %8) #37
  br label %36

36:                                               ; preds = %35, %29
  %.pn.pn = phi { ptr, i32 } [ %.pn, %35 ], [ %30, %29 ]
  call void @llvm.lifetime.end.p0(i64 96, ptr nonnull %8) #37
  call void @_ZNSt6vectorIN2cv3MatESaIS1_EED2Ev(ptr noundef nonnull align 8 dereferenceable(24) %7) #37
  call void @llvm.lifetime.end.p0(i64 24, ptr nonnull %7) #37
  resume { ptr, i32 } %.pn.pn
}